; Function Attrs: mustprogress uwtable
define internal noundef zeroext i1 @_ZNSt17_Function_handlerIFbllbEZN5arrow7compute8internal12_GLOBAL__N_119PrimitiveFilterImplILi1ELb0EE13ExecREEFilterEvEUlllbE1_E9_M_invokeERKSt9_Any_dataOlSC_Ob(ptr noundef nonnull readonly align 8 captures(none) dereferenceable(16) %0, ptr noundef nonnull readonly align 8 captures(none) dereferenceable(8) %1, ptr noundef nonnull readonly align 8 captures(none) dereferenceable(8) %2, ptr noundef nonnull readonly align 1 captures(none) dereferenceable(1) %3) #1 align 2 {
  %.val = load ptr, ptr %0, align 8, !tbaa !910
  %.val5 = load i64, ptr %2, align 8, !tbaa !75
  %.val6 = load i8, ptr %3, align 1, !tbaa !795, !range !137, !noundef !138
  %5 = trunc nuw i8 %.val6 to i1
  %6 = getelementptr inbounds nuw i8, ptr %.val, i64 88
  %7 = load i64, ptr %6, align 8, !tbaa !189
  br i1 %5, label %8, label %15

8:                                                ; preds = %4
  %.val4 = load i64, ptr %1, align 8, !tbaa !75
  %9 = getelementptr inbounds nuw i8, ptr %.val, i64 72
  %10 = load ptr, ptr %9, align 8, !tbaa !187
  %11 = getelementptr inbounds i8, ptr %10, i64 %7
  %12 = getelementptr inbounds nuw i8, ptr %.val, i64 16
  %13 = load ptr, ptr %12, align 8, !tbaa !181
  %14 = getelementptr inbounds i8, ptr %13, i64 %.val4
  tail call void @llvm.memcpy.p0.p0.i64(ptr align 1 %11, ptr align 1 %14, i64 %.val5, i1 false)
  br label %_ZSt10__invoke_rIbRZN5arrow7compute8internal12_GLOBAL__N_119PrimitiveFilterImplILi1ELb0EE13ExecREEFilterEvEUlllbE1_JllbEENSt9enable_ifIX16is_invocable_r_vIT_T0_DpT1_EES9_E4typeEOSA_DpOSB_.exit

15:                                               ; preds = %4
  %16 = getelementptr inbounds nuw i8, ptr %.val, i64 64
  %17 = load ptr, ptr %16, align 8, !tbaa !186
  tail call void @_ZN5arrow8bit_util9SetBitsToEPhllb(ptr noundef %17, i64 noundef %7, i64 noundef %.val5, i1 noundef zeroext false)
  %18 = getelementptr inbounds nuw i8, ptr %.val, i64 72
  %19 = load ptr, ptr %18, align 8, !tbaa !187
  %20 = load i64, ptr %6, align 8, !tbaa !189
  %21 = getelementptr inbounds i8, ptr %19, i64 %20
  tail call void @llvm.memset.p0.i64(ptr align 1 %21, i8 0, i64 %.val5, i1 false)
  br label %_ZSt10__invoke_rIbRZN5arrow7compute8internal12_GLOBAL__N_119PrimitiveFilterImplILi1ELb0EE13ExecREEFilterEvEUlllbE1_JllbEENSt9enable_ifIX16is_invocable_r_vIT_T0_DpT1_EES9_E4typeEOSA_DpOSB_.exit

_ZSt10__invoke_rIbRZN5arrow7compute8internal12_GLOBAL__N_119PrimitiveFilterImplILi1ELb0EE13ExecREEFilterEvEUlllbE1_JllbEENSt9enable_ifIX16is_invocable_r_vIT_T0_DpT1_EES9_E4typeEOSA_DpOSB_.exit: ; preds = %8, %15
  %22 = load i64, ptr %6, align 8, !tbaa !189
  %23 = add nsw i64 %22, %.val5
  store i64 %23, ptr %6, align 8, !tbaa !189
  ret i1 true
}